; Function Attrs: nounwind uwtable
define noalias nonnull ptr @l_Lean_PrettyPrinter_format___lambda__1(ptr noundef %0, ptr noundef readnone captures(none) %1, ptr noundef readnone captures(none) %2, ptr noundef readnone captures(none) %3, ptr noundef %4) local_unnamed_addr #0 {
  tail call void @lean_inc_heartbeat() #6
  %6 = tail call noalias ptr @mi_malloc_small(i64 noundef 24) #6
  %7 = icmp eq ptr %6, null
  br i1 %7, label %8, label %lean_alloc_ctor.exit

8:                                                ; preds = %5
  tail call void @lean_internal_panic_out_of_memory() #7
  unreachable

lean_alloc_ctor.exit:                             ; preds = %5
  %9 = getelementptr inbounds nuw i8, ptr %6, i64 4
  %10 = getelementptr inbounds nuw i8, ptr %6, i64 16
  store i64 1, ptr %10, align 8, !tbaa !13
  store i32 1, ptr %6, align 4, !tbaa !8
  store i32 100728856, ptr %9, align 4
  %11 = getelementptr inbounds nuw i8, ptr %6, i64 8
  store ptr %0, ptr %11, align 8, !tbaa !4
  tail call void @lean_inc_heartbeat() #6
  %12 = tail call noalias ptr @mi_malloc_small(i64 noundef 24) #6
  %13 = icmp eq ptr %12, null
  br i1 %13, label %14, label %lean_alloc_ctor.exit8

14:                                               ; preds = %lean_alloc_ctor.exit
  tail call void @lean_internal_panic_out_of_memory() #7
  unreachable

lean_alloc_ctor.exit8:                            ; preds = %lean_alloc_ctor.exit
  %15 = getelementptr inbounds nuw i8, ptr %12, i64 4
  store i32 1, ptr %12, align 4, !tbaa !8
  store i32 131096, ptr %15, align 4
  %16 = getelementptr inbounds nuw i8, ptr %12, i64 8
  store ptr %6, ptr %16, align 8, !tbaa !4
  %17 = getelementptr inbounds nuw i8, ptr %12, i64 16
  store ptr %4, ptr %17, align 8, !tbaa !4
  ret ptr %12
}